target datalayout = "e-m:e-p270:32:32-p271:32:32-p272:64:64-i64:64-i128:128-f80:128-n8:16:32:64-S128"
target triple = "x86_64-pc-linux-gnu"

%struct.ossl_store_loader_ctx_st = type { ptr, ptr, i32, i32 }

; Function Attrs: nounwind uwtable
define internal ptr @engine_load(ptr noundef %0, ptr noundef %1, ptr noundef %2) #0 {
  %4 = alloca ptr, align 8
  %5 = alloca ptr, align 8
  %6 = alloca ptr, align 8
  %7 = alloca ptr, align 8
  %8 = alloca ptr, align 8
  %9 = alloca ptr, align 8
  store ptr %0, ptr %4, align 8, !tbaa !15
  store ptr %1, ptr %5, align 8, !tbaa !10
  store ptr %2, ptr %6, align 8, !tbaa !12
  call void @llvm.lifetime.start.p0(i64 8, ptr %7) #5
  store ptr null, ptr %7, align 8, !tbaa !24
  call void @llvm.lifetime.start.p0(i64 8, ptr %8) #5
  store ptr null, ptr %8, align 8, !tbaa !24
  call void @llvm.lifetime.start.p0(i64 8, ptr %9) #5
  store ptr null, ptr %9, align 8, !tbaa !26
  %10 = load ptr, ptr %4, align 8, !tbaa !15
  %11 = getelementptr inbounds nuw %struct.ossl_store_loader_ctx_st, ptr %10, i32 0, i32 3
  %12 = load i32, ptr %11, align 4, !tbaa !28
  %13 = icmp eq i32 %12, 0
  br i1 %13, label %14, label %69

14:                                               ; preds = %3
  %15 = load ptr, ptr %4, align 8, !tbaa !15
  %16 = getelementptr inbounds nuw %struct.ossl_store_loader_ctx_st, ptr %15, i32 0, i32 0
  %17 = load ptr, ptr %16, align 8, !tbaa !29
  %18 = call i32 @ENGINE_init(ptr noundef %17)
  %19 = icmp ne i32 %18, 0
  br i1 %19, label %20, label %68

20:                                               ; preds = %14
  %21 = load ptr, ptr %4, align 8, !tbaa !15
  %22 = getelementptr inbounds nuw %struct.ossl_store_loader_ctx_st, ptr %21, i32 0, i32 2
  %23 = load i32, ptr %22, align 8, !tbaa !22
  %24 = icmp eq i32 %23, 0
  br i1 %24, label %30, label %25

25:                                               ; preds = %20
  %26 = load ptr, ptr %4, align 8, !tbaa !15
  %27 = getelementptr inbounds nuw %struct.ossl_store_loader_ctx_st, ptr %26, i32 0, i32 2
  %28 = load i32, ptr %27, align 8, !tbaa !22
  %29 = icmp eq i32 %28, 4
  br i1 %29, label %30, label %40

30:                                               ; preds = %25, %20
  %31 = load ptr, ptr %4, align 8, !tbaa !15
  %32 = getelementptr inbounds nuw %struct.ossl_store_loader_ctx_st, ptr %31, i32 0, i32 0
  %33 = load ptr, ptr %32, align 8, !tbaa !29
  %34 = load ptr, ptr %4, align 8, !tbaa !15
  %35 = getelementptr inbounds nuw %struct.ossl_store_loader_ctx_st, ptr %34, i32 0, i32 1
  %36 = load ptr, ptr %35, align 8, !tbaa !30
  %37 = load ptr, ptr %5, align 8, !tbaa !10
  %38 = load ptr, ptr %6, align 8, !tbaa !12
  %39 = call ptr @ENGINE_load_private_key(ptr noundef %33, ptr noundef %36, ptr noundef %37, ptr noundef %38)
  store ptr %39, ptr %7, align 8, !tbaa !24
  br label %40

40:                                               ; preds = %30, %25
  %41 = load ptr, ptr %7, align 8, !tbaa !24
  %42 = icmp eq ptr %41, null
  br i1 %42, label %43, label %48

43:                                               ; preds = %40
  %44 = load ptr, ptr %4, align 8, !tbaa !15
  %45 = getelementptr inbounds nuw %struct.ossl_store_loader_ctx_st, ptr %44, i32 0, i32 2
  %46 = load i32, ptr %45, align 8, !tbaa !22
  %47 = icmp eq i32 %46, 0
  br i1 %47, label %53, label %48

48:                                               ; preds = %43, %40
  %49 = load ptr, ptr %4, align 8, !tbaa !15
  %50 = getelementptr inbounds nuw %struct.ossl_store_loader_ctx_st, ptr %49, i32 0, i32 2
  %51 = load i32, ptr %50, align 8, !tbaa !22
  %52 = icmp eq i32 %51, 3
  br i1 %52, label %53, label %63

53:                                               ; preds = %48, %43
  %54 = load ptr, ptr %4, align 8, !tbaa !15
  %55 = getelementptr inbounds nuw %struct.ossl_store_loader_ctx_st, ptr %54, i32 0, i32 0
  %56 = load ptr, ptr %55, align 8, !tbaa !29
  %57 = load ptr, ptr %4, align 8, !tbaa !15
  %58 = getelementptr inbounds nuw %struct.ossl_store_loader_ctx_st, ptr %57, i32 0, i32 1
  %59 = load ptr, ptr %58, align 8, !tbaa !30
  %60 = load ptr, ptr %5, align 8, !tbaa !10
  %61 = load ptr, ptr %6, align 8, !tbaa !12
  %62 = call ptr @ENGINE_load_public_key(ptr noundef %56, ptr noundef %59, ptr noundef %60, ptr noundef %61)
  store ptr %62, ptr %8, align 8, !tbaa !24
  br label %63

63:                                               ; preds = %53, %48
  %64 = load ptr, ptr %4, align 8, !tbaa !15
  %65 = getelementptr inbounds nuw %struct.ossl_store_loader_ctx_st, ptr %64, i32 0, i32 0
  %66 = load ptr, ptr %65, align 8, !tbaa !29
  %67 = call i32 @ENGINE_finish(ptr noundef %66)
  br label %68

68:                                               ; preds = %63, %14
  br label %69

69:                                               ; preds = %68, %3
  %70 = load ptr, ptr %4, align 8, !tbaa !15
  %71 = getelementptr inbounds nuw %struct.ossl_store_loader_ctx_st, ptr %70, i32 0, i32 3
  store i32 1, ptr %71, align 4, !tbaa !28
  %72 = load ptr, ptr %8, align 8, !tbaa !24
  %73 = icmp ne ptr %72, null
  br i1 %73, label %74, label %77

74:                                               ; preds = %69
  %75 = load ptr, ptr %8, align 8, !tbaa !24
  %76 = call ptr @OSSL_STORE_INFO_new_PUBKEY(ptr noundef %75)
  store ptr %76, ptr %9, align 8, !tbaa !26
  br label %84

77:                                               ; preds = %69
  %78 = load ptr, ptr %7, align 8, !tbaa !24
  %79 = icmp ne ptr %78, null
  br i1 %79, label %80, label %83

80:                                               ; preds = %77
  %81 = load ptr, ptr %7, align 8, !tbaa !24
  %82 = call ptr @OSSL_STORE_INFO_new_PKEY(ptr noundef %81)
  store ptr %82, ptr %9, align 8, !tbaa !26
  br label %83

83:                                               ; preds = %80, %77
  br label %84

84:                                               ; preds = %83, %74
  %85 = load ptr, ptr %9, align 8, !tbaa !26
  %86 = icmp eq ptr %85, null
  br i1 %86, label %87, label %90

87:                                               ; preds = %84
  %88 = load ptr, ptr %7, align 8, !tbaa !24
  call void @EVP_PKEY_free(ptr noundef %88)
  %89 = load ptr, ptr %8, align 8, !tbaa !24
  call void @EVP_PKEY_free(ptr noundef %89)
  br label %90

90:                                               ; preds = %87, %84
  %91 = load ptr, ptr %9, align 8, !tbaa !26
  call void @llvm.lifetime.end.p0(i64 8, ptr %9) #5
  call void @llvm.lifetime.end.p0(i64 8, ptr %8) #5
  call void @llvm.lifetime.end.p0(i64 8, ptr %7) #5
  ret ptr %91
}