; Function Attrs: nounwind uwtable
define internal ptr @engine_load(ptr noundef captures(none) %0, ptr noundef %1, ptr noundef %2) #0 {
  %4 = getelementptr inbounds nuw i8, ptr %0, i64 20
  %5 = load i32, ptr %4, align 4, !tbaa !14
  %6 = icmp eq i32 %5, 0
  br i1 %6, label %7, label %.thread44

7:                                                ; preds = %3
  %8 = load ptr, ptr %0, align 8, !tbaa !6
  %9 = tail call i32 @ENGINE_init(ptr noundef %8) #8
  %.not = icmp eq i32 %9, 0
  br i1 %.not, label %.thread44, label %10

10:                                               ; preds = %7
  %11 = getelementptr inbounds nuw i8, ptr %0, i64 16
  %12 = load i32, ptr %11, align 8, !tbaa !13
  switch i32 %12, label %.thread [
    i32 0, label %13
    i32 4, label %13
  ]

13:                                               ; preds = %10, %10
  %14 = load ptr, ptr %0, align 8, !tbaa !6
  %15 = getelementptr inbounds nuw i8, ptr %0, i64 8
  %16 = load ptr, ptr %15, align 8, !tbaa !12
  %17 = tail call ptr @ENGINE_load_private_key(ptr noundef %14, ptr noundef %16, ptr noundef %1, ptr noundef %2) #8
  %18 = icmp eq ptr %17, null
  %.pre = load i32, ptr %11, align 8, !tbaa !13
  br i1 %18, label %.thread, label %21

.thread:                                          ; preds = %13, %10
  %19 = phi i32 [ %12, %10 ], [ %.pre, %13 ]
  %20 = icmp eq i32 %19, 0
  br i1 %20, label %24, label %21

21:                                               ; preds = %.thread, %13
  %22 = phi i32 [ %19, %.thread ], [ %.pre, %13 ]
  %.12734 = phi ptr [ null, %.thread ], [ %17, %13 ]
  %23 = icmp eq i32 %22, 3
  br i1 %23, label %24, label %29

24:                                               ; preds = %21, %.thread
  %.12733 = phi ptr [ %.12734, %21 ], [ null, %.thread ]
  %25 = load ptr, ptr %0, align 8, !tbaa !6
  %26 = getelementptr inbounds nuw i8, ptr %0, i64 8
  %27 = load ptr, ptr %26, align 8, !tbaa !12
  %28 = tail call ptr @ENGINE_load_public_key(ptr noundef %25, ptr noundef %27, ptr noundef %1, ptr noundef %2) #8
  br label %29

.thread44:                                        ; preds = %3, %7
  store i32 1, ptr %4, align 4, !tbaa !14
  br label %.thread49

29:                                               ; preds = %21, %24
  %.12732 = phi ptr [ %.12733, %24 ], [ %.12734, %21 ]
  %.1 = phi ptr [ %28, %24 ], [ null, %21 ]
  %30 = load ptr, ptr %0, align 8, !tbaa !6
  %31 = tail call i32 @ENGINE_finish(ptr noundef %30) #8
  store i32 1, ptr %4, align 4, !tbaa !14
  %.not29 = icmp eq ptr %.1, null
  br i1 %.not29, label %34, label %32

32:                                               ; preds = %29
  %33 = tail call ptr @OSSL_STORE_INFO_new_PUBKEY(ptr noundef nonnull %.1) #8
  br label %37

34:                                               ; preds = %29
  %.not30 = icmp eq ptr %.12732, null
  br i1 %.not30, label %.thread49, label %35

35:                                               ; preds = %34
  %36 = tail call ptr @OSSL_STORE_INFO_new_PKEY(ptr noundef nonnull %.12732) #8
  br label %37

37:                                               ; preds = %35, %32
  %.0 = phi ptr [ %33, %32 ], [ %36, %35 ]
  %38 = icmp eq ptr %.0, null
  br i1 %38, label %.thread49, label %39

.thread49:                                        ; preds = %.thread44, %34, %37
  %.0264054 = phi ptr [ %.12732, %37 ], [ null, %.thread44 ], [ null, %34 ]
  %.0254253 = phi ptr [ %.1, %37 ], [ null, %.thread44 ], [ null, %34 ]
  tail call void @EVP_PKEY_free(ptr noundef %.0264054) #8
  tail call void @EVP_PKEY_free(ptr noundef %.0254253) #8
  br label %39

39:                                               ; preds = %.thread49, %37
  %.055 = phi ptr [ null, %.thread49 ], [ %.0, %37 ]
  ret ptr %.055
}